; ModuleID = '17/288.c'
source_filename = "17/288.c"
target datalayout = "e-m:e-p270:32:32-p271:32:32-p272:64:64-i64:64-f80:128-n8:16:32:64-S128"
target triple = "x86_64-pc-linux-gnu"

@.str = private unnamed_addr constant [7 x i8] c"%s\0A%s\0A\00", align 1

; Function Attrs: noinline nounwind uwtable
define dso_local i32 @main() #0 {
  %1 = alloca i32, align 4
  %2 = alloca [110 x i8], align 16
  %3 = alloca [110 x i8], align 16
  %4 = alloca [110 x i8], align 16
  %5 = alloca i32, align 4
  %6 = alloca i32, align 4
  %7 = alloca i32, align 4
  %8 = alloca i32, align 4
  %9 = alloca i32, align 4
  store i32 0, i32* %1, align 4
  br label %10

10:                                               ; preds = %119, %0
  %11 = getelementptr inbounds [110 x i8], [110 x i8]* %2, i64 0, i64 0
  %12 = call i32 (i8*, ...) bitcast (i32 (...)* @gets to i32 (i8*, ...)*)(i8* %11)
  %13 = icmp ne i32 %12, 0
  br i1 %13, label %14, label %123

14:                                               ; preds = %10
  store i32 -1, i32* %9, align 4
  store i32 -1, i32* %8, align 4
  %15 = getelementptr inbounds [110 x i8], [110 x i8]* %2, i64 0, i64 0
  %16 = call i64 @strlen(i8* %15) #4
  %17 = trunc i64 %16 to i32
  store i32 %17, i32* %5, align 4
  %18 = load i32, i32* %5, align 4
  %19 = sext i32 %18 to i64
  %20 = getelementptr inbounds [110 x i8], [110 x i8]* %4, i64 0, i64 %19
  store i8 0, i8* %20, align 1
  store i32 0, i32* %6, align 4
  br label %21

21:                                               ; preds = %35, %14
  %22 = load i32, i32* %6, align 4
  %23 = load i32, i32* %5, align 4
  %24 = icmp slt i32 %22, %23
  br i1 %24, label %25, label %38

25:                                               ; preds = %21
  %26 = load i32, i32* %6, align 4
  %27 = sext i32 %26 to i64
  %28 = getelementptr inbounds [110 x i8], [110 x i8]* %2, i64 0, i64 %27
  %29 = load i8, i8* %28, align 1
  %30 = sext i8 %29 to i32
  %31 = icmp eq i32 %30, 40
  br i1 %31, label %32, label %34

32:                                               ; preds = %25
  %33 = load i32, i32* %6, align 4
  store i32 %33, i32* %8, align 4
  br label %34

34:                                               ; preds = %32, %25
  br label %35

35:                                               ; preds = %34
  %36 = load i32, i32* %6, align 4
  %37 = add nsw i32 %36, 1
  store i32 %37, i32* %6, align 4
  br label %21

38:                                               ; preds = %21
  %39 = getelementptr inbounds [110 x i8], [110 x i8]* %3, i64 0, i64 0
  %40 = getelementptr inbounds [110 x i8], [110 x i8]* %2, i64 0, i64 0
  %41 = call i8* @strcpy(i8* %39, i8* %40) #5
  %42 = load i32, i32* %8, align 4
  store i32 %42, i32* %6, align 4
  br label %43

43:                                               ; preds = %80, %38
  %44 = load i32, i32* %6, align 4
  %45 = icmp sge i32 %44, 0
  br i1 %45, label %46, label %83

46:                                               ; preds = %43
  %47 = load i32, i32* %6, align 4
  %48 = sext i32 %47 to i64
  %49 = getelementptr inbounds [110 x i8], [110 x i8]* %3, i64 0, i64 %48
  %50 = load i8, i8* %49, align 1
  %51 = sext i8 %50 to i32
  %52 = icmp eq i32 %51, 40
  br i1 %52, label %53, label %79

53:                                               ; preds = %46
  %54 = load i32, i32* %6, align 4
  %55 = add nsw i32 %54, 1
  store i32 %55, i32* %7, align 4
  br label %56

56:                                               ; preds = %75, %53
  %57 = load i32, i32* %7, align 4
  %58 = load i32, i32* %5, align 4
  %59 = icmp slt i32 %57, %58
  br i1 %59, label %60, label %78

60:                                               ; preds = %56
  %61 = load i32, i32* %7, align 4
  %62 = sext i32 %61 to i64
  %63 = getelementptr inbounds [110 x i8], [110 x i8]* %3, i64 0, i64 %62
  %64 = load i8, i8* %63, align 1
  %65 = sext i8 %64 to i32
  %66 = icmp eq i32 %65, 41
  br i1 %66, label %67, label %74

67:                                               ; preds = %60
  %68 = load i32, i32* %7, align 4
  %69 = sext i32 %68 to i64
  %70 = getelementptr inbounds [110 x i8], [110 x i8]* %3, i64 0, i64 %69
  store i8 97, i8* %70, align 1
  %71 = load i32, i32* %6, align 4
  %72 = sext i32 %71 to i64
  %73 = getelementptr inbounds [110 x i8], [110 x i8]* %3, i64 0, i64 %72
  store i8 97, i8* %73, align 1
  br label %78

74:                                               ; preds = %60
  br label %75

75:                                               ; preds = %74
  %76 = load i32, i32* %7, align 4
  %77 = add nsw i32 %76, 1
  store i32 %77, i32* %7, align 4
  br label %56

78:                                               ; preds = %67, %56
  br label %79

79:                                               ; preds = %78, %46
  br label %80

80:                                               ; preds = %79
  %81 = load i32, i32* %6, align 4
  %82 = add nsw i32 %81, -1
  store i32 %82, i32* %6, align 4
  br label %43

83:                                               ; preds = %43
  store i32 0, i32* %6, align 4
  br label %84

84:                                               ; preds = %116, %83
  %85 = load i32, i32* %6, align 4
  %86 = load i32, i32* %5, align 4
  %87 = icmp slt i32 %85, %86
  br i1 %87, label %88, label %119

88:                                               ; preds = %84
  %89 = load i32, i32* %6, align 4
  %90 = sext i32 %89 to i64
  %91 = getelementptr inbounds [110 x i8], [110 x i8]* %3, i64 0, i64 %90
  %92 = load i8, i8* %91, align 1
  %93 = sext i8 %92 to i32
  %94 = icmp eq i32 %93, 40
  br i1 %94, label %95, label %99

95:                                               ; preds = %88
  %96 = load i32, i32* %6, align 4
  %97 = sext i32 %96 to i64
  %98 = getelementptr inbounds [110 x i8], [110 x i8]* %4, i64 0, i64 %97
  store i8 36, i8* %98, align 1
  br label %115

99:                                               ; preds = %88
  %100 = load i32, i32* %6, align 4
  %101 = sext i32 %100 to i64
  %102 = getelementptr inbounds [110 x i8], [110 x i8]* %3, i64 0, i64 %101
  %103 = load i8, i8* %102, align 1
  %104 = sext i8 %103 to i32
  %105 = icmp eq i32 %104, 41
  br i1 %105, label %106, label %110

106:                                              ; preds = %99
  %107 = load i32, i32* %6, align 4
  %108 = sext i32 %107 to i64
  %109 = getelementptr inbounds [110 x i8], [110 x i8]* %4, i64 0, i64 %108
  store i8 63, i8* %109, align 1
  br label %114

110:                                              ; preds = %99
  %111 = load i32, i32* %6, align 4
  %112 = sext i32 %111 to i64
  %113 = getelementptr inbounds [110 x i8], [110 x i8]* %4, i64 0, i64 %112
  store i8 32, i8* %113, align 1
  br label %114

114:                                              ; preds = %110, %106
  br label %115

115:                                              ; preds = %114, %95
  br label %116

116:                                              ; preds = %115
  %117 = load i32, i32* %6, align 4
  %118 = add nsw i32 %117, 1
  store i32 %118, i32* %6, align 4
  br label %84

119:                                              ; preds = %84
  %120 = getelementptr inbounds [110 x i8], [110 x i8]* %2, i64 0, i64 0
  %121 = getelementptr inbounds [110 x i8], [110 x i8]* %4, i64 0, i64 0
  %122 = call i32 (i8*, ...) @printf(i8* getelementptr inbounds ([7 x i8], [7 x i8]* @.str, i64 0, i64 0), i8* %120, i8* %121)
  br label %10

123:                                              ; preds = %10
  ret i32 0
}

declare dso_local i32 @gets(...) #1

; Function Attrs: nounwind readonly
declare dso_local i64 @strlen(i8*) #2

; Function Attrs: nounwind
declare dso_local i8* @strcpy(i8*, i8*) #3

declare dso_local i32 @printf(i8*, ...) #1


!llvm.module.flags = !{!0}
!llvm.ident = !{!1}

!0 = !{i32 1, !"wchar_size", i32 4}
!1 = !{!"clang version 10.0.0-4ubuntu1 "}
